target datalayout = "e-m:e-p270:32:32-p271:32:32-p272:64:64-i64:64-i128:128-f80:128-n8:16:32:64-S128"
target triple = "x86_64-unknown-linux-gnu"

%"class.sat::literal" = type { i32 }

; Function Attrs: mustprogress nounwind uwtable
define linkonce_odr hidden void @_ZN3sat7literalC2Ejb(ptr noundef nonnull align 4 dereferenceable(4) %this, i32 noundef %v, i1 noundef zeroext %_sign) unnamed_addr #4 comdat align 2 {
entry:
  %this.addr = alloca ptr, align 8
  %v.addr = alloca i32, align 4
  %_sign.addr = alloca i8, align 1
  store ptr %this, ptr %this.addr, align 8
  store i32 %v, ptr %v.addr, align 4
  %frombool = zext i1 %_sign to i8
  store i8 %frombool, ptr %_sign.addr, align 1
  %this1 = load ptr, ptr %this.addr, align 8
  %m_val = getelementptr inbounds %"class.sat::literal", ptr %this1, i32 0, i32 0
  %0 = load i32, ptr %v.addr, align 4
  %shl = shl i32 %0, 1
  %1 = load i8, ptr %_sign.addr, align 1
  %tobool = trunc i8 %1 to i1
  %conv = zext i1 %tobool to i32
  %add = add i32 %shl, %conv
  store i32 %add, ptr %m_val, align 4
  ret void
}

; Function Attrs: mustprogress uwtable
define hidden noundef zeroext i1 @_ZN3sat9lookahead17in_reduced_clauseEj(ptr noundef nonnull align 8 dereferenceable(1160) %this, i32 noundef %v) #5 align 2 {
entry:
  %this.addr = alloca ptr, align 8
  %v.addr = alloca i32, align 4
  %agg.tmp = alloca %"class.sat::literal", align 4
  %agg.tmp2 = alloca %"class.sat::literal", align 4
  store ptr %this, ptr %this.addr, align 8
  store i32 %v, ptr %v.addr, align 4
  %this1 = load ptr, ptr %this.addr, align 8
  %0 = load i32, ptr %v.addr, align 4
  call void @_ZN3sat7literalC2Ejb(ptr noundef nonnull align 4 dereferenceable(4) %agg.tmp, i32 noundef %0, i1 noundef zeroext false)
  %coerce.dive = getelementptr inbounds %"class.sat::literal", ptr %agg.tmp, i32 0, i32 0
  %1 = load i32, ptr %coerce.dive, align 4
  %call = call noundef zeroext i1 @_ZN3sat9lookahead17in_reduced_clauseENS_7literalE(ptr noundef nonnull align 8 dereferenceable(1160) %this1, i32 %1)
  br i1 %call, label %lor.end, label %lor.rhs

lor.rhs:                                          ; preds = %entry
  %2 = load i32, ptr %v.addr, align 4
  call void @_ZN3sat7literalC2Ejb(ptr noundef nonnull align 4 dereferenceable(4) %agg.tmp2, i32 noundef %2, i1 noundef zeroext true)
  %coerce.dive3 = getelementptr inbounds %"class.sat::literal", ptr %agg.tmp2, i32 0, i32 0
  %3 = load i32, ptr %coerce.dive3, align 4
  %call4 = call noundef zeroext i1 @_ZN3sat9lookahead17in_reduced_clauseENS_7literalE(ptr noundef nonnull align 8 dereferenceable(1160) %this1, i32 %3)
  br label %lor.end

lor.end:                                          ; preds = %lor.rhs, %entry
  %4 = phi i1 [ true, %entry ], [ %call4, %lor.rhs ]
  ret i1 %4
}