; Function Attrs: mustprogress nofree norecurse nosync nounwind willreturn memory(read, inaccessiblemem: none) uwtable
define hidden noundef zeroext i1 @_ZN3sat9lookahead17in_reduced_clauseEj(ptr nocapture noundef nonnull readonly align 8 dereferenceable(1160) %this, i32 noundef %v) local_unnamed_addr #9 align 2 {
entry:
  %shl.i = shl i32 %v, 1
  %call = tail call noundef zeroext i1 @_ZN3sat9lookahead17in_reduced_clauseENS_7literalE(ptr noundef nonnull align 8 dereferenceable(1160) %this, i32 %shl.i)
  br i1 %call, label %lor.end, label %lor.rhs

lor.rhs:                                          ; preds = %entry
  %add.i = or disjoint i32 %shl.i, 1
  %call4 = tail call noundef zeroext i1 @_ZN3sat9lookahead17in_reduced_clauseENS_7literalE(ptr noundef nonnull align 8 dereferenceable(1160) %this, i32 %add.i)
  br label %lor.end

lor.end:                                          ; preds = %lor.rhs, %entry
  %0 = phi i1 [ true, %entry ], [ %call4, %lor.rhs ]
  ret i1 %0
}